target datalayout = "e-m:e-p270:32:32-p271:32:32-p272:64:64-i64:64-i128:128-f80:128-n8:16:32:64-S128"
target triple = "x86_64-pc-linux-gnu"

; Function Attrs: inlinehint nounwind uwtable
define internal void @Put8x8uv(i8 noundef zeroext %0, ptr noundef %1) #4 {
  %3 = alloca i8, align 1
  %4 = alloca ptr, align 8
  %5 = alloca i32, align 4
  store i8 %0, ptr %3, align 1, !tbaa !18
  store ptr %1, ptr %4, align 8, !tbaa !16
  call void @llvm.lifetime.start.p0(i64 4, ptr %5) #7
  store i32 0, ptr %5, align 4, !tbaa !9
  br label %6

6:                                                ; preds = %18, %2
  %7 = load i32, ptr %5, align 4, !tbaa !9
  %8 = icmp slt i32 %7, 8
  br i1 %8, label %9, label %21

9:                                                ; preds = %6
  %10 = load ptr, ptr %4, align 8, !tbaa !16
  %11 = load i32, ptr %5, align 4, !tbaa !9
  %12 = mul nsw i32 %11, 32
  %13 = sext i32 %12 to i64
  %14 = getelementptr inbounds i8, ptr %10, i64 %13
  %15 = load i8, ptr %3, align 1, !tbaa !18
  %16 = zext i8 %15 to i32
  %17 = trunc i32 %16 to i8
  call void @llvm.memset.p0.i64(ptr align 1 %14, i8 %17, i64 8, i1 false)
  br label %18

18:                                               ; preds = %9
  %19 = load i32, ptr %5, align 4, !tbaa !9
  %20 = add nsw i32 %19, 1
  store i32 %20, ptr %5, align 4, !tbaa !9
  br label %6, !llvm.loop !51

21:                                               ; preds = %6
  call void @llvm.lifetime.end.p0(i64 4, ptr %5) #7
  ret void
}

; Function Attrs: nounwind uwtable
define internal void @DC8uv_C(ptr noundef %0) #0 {
  %2 = alloca ptr, align 8
  %3 = alloca i32, align 4
  %4 = alloca i32, align 4
  store ptr %0, ptr %2, align 8, !tbaa !16
  call void @llvm.lifetime.start.p0(i64 4, ptr %3) #7
  store i32 8, ptr %3, align 4, !tbaa !9
  call void @llvm.lifetime.start.p0(i64 4, ptr %4) #7
  store i32 0, ptr %4, align 4, !tbaa !9
  br label %5

5:                                                ; preds = %27, %1
  %6 = load i32, ptr %4, align 4, !tbaa !9
  %7 = icmp slt i32 %6, 8
  br i1 %7, label %8, label %30

8:                                                ; preds = %5
  %9 = load ptr, ptr %2, align 8, !tbaa !16
  %10 = load i32, ptr %4, align 4, !tbaa !9
  %11 = sub nsw i32 %10, 32
  %12 = sext i32 %11 to i64
  %13 = getelementptr inbounds i8, ptr %9, i64 %12
  %14 = load i8, ptr %13, align 1, !tbaa !18
  %15 = zext i8 %14 to i32
  %16 = load ptr, ptr %2, align 8, !tbaa !16
  %17 = load i32, ptr %4, align 4, !tbaa !9
  %18 = mul nsw i32 %17, 32
  %19 = add nsw i32 -1, %18
  %20 = sext i32 %19 to i64
  %21 = getelementptr inbounds i8, ptr %16, i64 %20
  %22 = load i8, ptr %21, align 1, !tbaa !18
  %23 = zext i8 %22 to i32
  %24 = add nsw i32 %15, %23
  %25 = load i32, ptr %3, align 4, !tbaa !9
  %26 = add nsw i32 %25, %24
  store i32 %26, ptr %3, align 4, !tbaa !9
  br label %27

27:                                               ; preds = %8
  %28 = load i32, ptr %4, align 4, !tbaa !9
  %29 = add nsw i32 %28, 1
  store i32 %29, ptr %4, align 4, !tbaa !9
  br label %5, !llvm.loop !35

30:                                               ; preds = %5
  %31 = load i32, ptr %3, align 4, !tbaa !9
  %32 = ashr i32 %31, 4
  %33 = trunc i32 %32 to i8
  %34 = load ptr, ptr %2, align 8, !tbaa !16
  call void @Put8x8uv(i8 noundef zeroext %33, ptr noundef %34)
  call void @llvm.lifetime.end.p0(i64 4, ptr %4) #7
  call void @llvm.lifetime.end.p0(i64 4, ptr %3) #7
  ret void
}