; Function Attrs: nofree norecurse nosync nounwind memory(argmem: readwrite) uwtable
define internal void @DC8uv_C(ptr noundef captures(none) %0) #3 {
  %invariant.gep = getelementptr i8, ptr %0, i64 -1
  br label %2

2:                                                ; preds = %1, %2
  %indvars.iv = phi i64 [ 0, %1 ], [ %indvars.iv.next, %2 ]
  %.089 = phi i32 [ 8, %1 ], [ %11, %2 ]
  %3 = or disjoint i64 %indvars.iv, -32
  %4 = getelementptr inbounds i8, ptr %0, i64 %3
  %5 = load i8, ptr %4, align 1, !tbaa !14
  %6 = zext i8 %5 to i32
  %7 = shl nuw nsw i64 %indvars.iv, 5
  %gep = getelementptr i8, ptr %invariant.gep, i64 %7
  %8 = load i8, ptr %gep, align 1, !tbaa !14
  %9 = zext i8 %8 to i32
  %10 = add nuw nsw i32 %.089, %6
  %11 = add nuw nsw i32 %10, %9
  %indvars.iv.next = add nuw nsw i64 %indvars.iv, 1
  %exitcond.not = icmp eq i64 %indvars.iv.next, 8
  br i1 %exitcond.not, label %12, label %2, !llvm.loop !36

12:                                               ; preds = %2
  %13 = lshr i32 %11, 4
  %14 = trunc i32 %13 to i8
  br label %15

15:                                               ; preds = %15, %12
  %indvars.iv.i = phi i64 [ 0, %12 ], [ %indvars.iv.next.i, %15 ]
  %16 = shl nuw nsw i64 %indvars.iv.i, 5
  %17 = getelementptr inbounds nuw i8, ptr %0, i64 %16
  tail call void @llvm.memset.p0.i64(ptr noundef nonnull align 1 dereferenceable(8) %17, i8 %14, i64 8, i1 false)
  %indvars.iv.next.i = add nuw nsw i64 %indvars.iv.i, 1
  %exitcond.not.i = icmp eq i64 %indvars.iv.next.i, 8
  br i1 %exitcond.not.i, label %Put8x8uv.exit, label %15, !llvm.loop !37

Put8x8uv.exit:                                    ; preds = %15
  ret void
}